; Function Attrs: mustprogress uwtable
define void @_ZNK32pxrInternal_v0_24__pxrReserved__26UsdShadeMaterialBindingAPI19GetDirectBindingRelERKNS_7TfTokenE(ptr dead_on_unwind noalias writable sret(%"class.pxrInternal_v0_24__pxrReserved__::UsdRelationship") align 8 %0, ptr noundef nonnull align 8 dereferenceable(32) %1, ptr noundef nonnull align 8 dereferenceable(8) %2) local_unnamed_addr #0 align 2 personality ptr @__gxx_personality_v0 {
  %4 = alloca %"class.pxrInternal_v0_24__pxrReserved__::UsdPrim", align 8
  %5 = alloca %"class.pxrInternal_v0_24__pxrReserved__::TfToken", align 8
  %6 = getelementptr inbounds nuw i8, ptr %1, i64 8
  %7 = getelementptr inbounds nuw i8, ptr %1, i64 16
  call void @_ZN32pxrInternal_v0_24__pxrReserved__9UsdObjectC2ERKNS_18Usd_PrimDataHandleERKNS_7SdfPathE(ptr noundef nonnull align 8 dereferenceable(32) %4, ptr noundef nonnull align 8 dereferenceable(8) %6, ptr noundef nonnull align 4 dereferenceable(8) %7)
  invoke fastcc void @_ZN32pxrInternal_v0_24__pxrReserved__L24_GetDirectBindingRelNameERKNS_7TfTokenE(ptr dead_on_unwind noalias nonnull writable align 8 %5, ptr noundef nonnull align 8 dereferenceable(8) %2)
          to label %8 unwind label %50

8:                                                ; preds = %3
  invoke void @_ZNK32pxrInternal_v0_24__pxrReserved__7UsdPrim15GetRelationshipERKNS_7TfTokenE(ptr dead_on_unwind writable sret(%"class.pxrInternal_v0_24__pxrReserved__::UsdRelationship") align 8 %0, ptr noundef nonnull align 8 dereferenceable(32) %4, ptr noundef nonnull align 8 dereferenceable(8) %5)
          to label %9 unwind label %52

9:                                                ; preds = %8
  %10 = load ptr, ptr %5, align 8
  %11 = ptrtoint ptr %10 to i64
  %12 = and i64 %11, 7
  %.not.i.i = icmp eq i64 %12, 0
  br i1 %.not.i.i, label %_ZN32pxrInternal_v0_24__pxrReserved__7TfTokenD2Ev.exit, label %13

13:                                               ; preds = %9
  %14 = and i64 %11, -8
  %15 = inttoptr i64 %14 to ptr
  %16 = atomicrmw sub ptr %15, i32 2 release, align 4
  br label %_ZN32pxrInternal_v0_24__pxrReserved__7TfTokenD2Ev.exit

_ZN32pxrInternal_v0_24__pxrReserved__7TfTokenD2Ev.exit: ; preds = %9, %13
  %17 = getelementptr inbounds nuw i8, ptr %4, i64 24
  %18 = load ptr, ptr %17, align 8
  %19 = ptrtoint ptr %18 to i64
  %20 = and i64 %19, 7
  %.not.i.i.i.i = icmp eq i64 %20, 0
  br i1 %.not.i.i.i.i, label %_ZN32pxrInternal_v0_24__pxrReserved__7TfTokenD2Ev.exit.i.i, label %21

21:                                               ; preds = %_ZN32pxrInternal_v0_24__pxrReserved__7TfTokenD2Ev.exit
  %22 = and i64 %19, -8
  %23 = inttoptr i64 %22 to ptr
  %24 = atomicrmw sub ptr %23, i32 2 release, align 4
  br label %_ZN32pxrInternal_v0_24__pxrReserved__7TfTokenD2Ev.exit.i.i

_ZN32pxrInternal_v0_24__pxrReserved__7TfTokenD2Ev.exit.i.i: ; preds = %21, %_ZN32pxrInternal_v0_24__pxrReserved__7TfTokenD2Ev.exit
  %25 = getelementptr inbounds nuw i8, ptr %4, i64 16
  %26 = load i32, ptr %25, align 8
  %.not.i.i1.i.i = icmp eq i32 %26, 0
  br i1 %.not.i.i1.i.i, label %_ZN32pxrInternal_v0_24__pxrReserved__7SdfPathD2Ev.exit.i.i, label %27

27:                                               ; preds = %_ZN32pxrInternal_v0_24__pxrReserved__7TfTokenD2Ev.exit.i.i
  %28 = and i32 %26, 255
  %29 = lshr i32 %26, 8
  %30 = zext nneg i32 %28 to i64
  %31 = getelementptr inbounds [257 x ptr], ptr @_ZN32pxrInternal_v0_24__pxrReserved__8Sdf_PoolINS_15Sdf_PathPrimTagELj24ELj8ELj16384EE13_regionStartsE, i64 0, i64 %30
  %32 = load ptr, ptr %31, align 8
  %33 = mul nuw nsw i32 %29, 24
  %34 = zext nneg i32 %33 to i64
  %35 = getelementptr inbounds i8, ptr %32, i64 %34
  %36 = getelementptr inbounds nuw i8, ptr %35, i64 8
  %37 = atomicrmw sub ptr %36, i32 1 seq_cst, align 4
  %38 = and i32 %37, 2147483647
  %39 = icmp eq i32 %38, 1
  br i1 %39, label %40, label %_ZN32pxrInternal_v0_24__pxrReserved__7SdfPathD2Ev.exit.i.i

40:                                               ; preds = %27
  invoke void @_ZNK32pxrInternal_v0_24__pxrReserved__12Sdf_PathNode8_DestroyEv(ptr noundef nonnull align 8 dereferenceable(16) %35)
          to label %_ZN32pxrInternal_v0_24__pxrReserved__7SdfPathD2Ev.exit.i.i unwind label %41

41:                                               ; preds = %40
  %42 = landingpad { ptr, i32 }
          catch ptr null
  %43 = extractvalue { ptr, i32 } %42, 0
  call void @__clang_call_terminate(ptr %43) #23
  unreachable

_ZN32pxrInternal_v0_24__pxrReserved__7SdfPathD2Ev.exit.i.i: ; preds = %40, %27, %_ZN32pxrInternal_v0_24__pxrReserved__7TfTokenD2Ev.exit.i.i
  %44 = getelementptr inbounds nuw i8, ptr %4, i64 8
  %45 = load ptr, ptr %44, align 8
  %.not.i.i.i.i.i = icmp eq ptr %45, null
  br i1 %.not.i.i.i.i.i, label %_ZN32pxrInternal_v0_24__pxrReserved__7UsdPrimD2Ev.exit, label %46

46:                                               ; preds = %_ZN32pxrInternal_v0_24__pxrReserved__7SdfPathD2Ev.exit.i.i
  %47 = getelementptr inbounds nuw i8, ptr %45, i64 48
  %48 = atomicrmw sub ptr %47, i64 1 release, align 8
  %.not1.i.i.i.i.i = icmp eq i64 %48, 1
  br i1 %.not1.i.i.i.i.i, label %49, label %_ZN32pxrInternal_v0_24__pxrReserved__7UsdPrimD2Ev.exit

49:                                               ; preds = %46
  call void @_ZN32pxrInternal_v0_24__pxrReserved__12Usd_PrimDataD1Ev(ptr noundef nonnull align 8 dereferenceable(64) %45) #21
  call void @_ZdlPvm(ptr noundef nonnull %45, i64 noundef 64) #22
  br label %_ZN32pxrInternal_v0_24__pxrReserved__7UsdPrimD2Ev.exit

_ZN32pxrInternal_v0_24__pxrReserved__7UsdPrimD2Ev.exit: ; preds = %_ZN32pxrInternal_v0_24__pxrReserved__7SdfPathD2Ev.exit.i.i, %46, %49
  ret void

50:                                               ; preds = %3
  %51 = landingpad { ptr, i32 }
          cleanup
  br label %_ZN32pxrInternal_v0_24__pxrReserved__7TfTokenD2Ev.exit6

52:                                               ; preds = %8
  %53 = landingpad { ptr, i32 }
          cleanup
  %54 = load ptr, ptr %5, align 8
  %55 = ptrtoint ptr %54 to i64
  %56 = and i64 %55, 7
  %.not.i.i5 = icmp eq i64 %56, 0
  br i1 %.not.i.i5, label %_ZN32pxrInternal_v0_24__pxrReserved__7TfTokenD2Ev.exit6, label %57

57:                                               ; preds = %52
  %58 = and i64 %55, -8
  %59 = inttoptr i64 %58 to ptr
  %60 = atomicrmw sub ptr %59, i32 2 release, align 4
  br label %_ZN32pxrInternal_v0_24__pxrReserved__7TfTokenD2Ev.exit6

_ZN32pxrInternal_v0_24__pxrReserved__7TfTokenD2Ev.exit6: ; preds = %57, %52, %50
  %.pn = phi { ptr, i32 } [ %51, %50 ], [ %53, %52 ], [ %53, %57 ]
  call void @_ZN32pxrInternal_v0_24__pxrReserved__7UsdPrimD2Ev(ptr noundef nonnull align 8 dereferenceable(32) %4) #21
  resume { ptr, i32 } %.pn
}